target datalayout = "e-m:e-p270:32:32-p271:32:32-p272:64:64-i64:64-i128:128-f80:128-n8:16:32:64-S128"
target triple = "x86_64-unknown-linux-gnu"

%struct.clientBufferLimitsConfig = type { i64, i64, i64 }
%struct.redisServer = type { i32, i64, ptr, ptr, ptr, i32, i32, i32, i32, i32, ptr, ptr, ptr, ptr, ptr, ptr, i32, i32, i64, i32, i32, i32, i32, ptr, i32, i32, [41 x i8], i32, i64, i32, i32, i32, ptr, ptr, i32, i32, i64, ptr, ptr, ptr, ptr, [2 x i32], i32, i32, i32, i32, i32, [16 x ptr], i32, ptr, ptr, i32, [8 x %struct.connListener], i32, %struct.connListener, ptr, ptr, ptr, ptr, ptr, ptr, ptr, ptr, ptr, ptr, i32, ptr, i32, ptr, [3 x %struct.pause_event], [256 x i8], ptr, i64, i32, i32, i32, i32, i64, i32, i32, i32, i32, i32, i64, i64, i64, i64, i64, i64, i64, i64, i64, double, i64, i64, i64, i64, i64, i64, i64, i64, i64, i64, i64, i64, i64, i64, i64, i64, i64, i64, i64, i64, double, i64, i64, i64, i64, i64, ptr, i64, i64, i64, %struct.malloc_stats, i64, i64, i64, i64, i64, i64, i64, i64, i64, i64, i64, i64, double, [4 x i64], i64, i64, i64, i64, i64, i64, i64, i64, i64, i64, [7 x %struct.anon], i64, i64, i64, i64, i64, i64, [4 x %struct.durationStats], i32, i32, i32, i32, i32, i32, i32, i32, i32, i32, i64, i32, i32, i32, i32, i64, i64, i32, i32, i32, i32, i32, ptr, [3 x %struct.clientBufferLimitsConfig], i32, i32, ptr, i32, i32, i32, i32, ptr, ptr, i32, i32, i64, i64, i64, i64, i64, i32, i32, ptr, i32, i32, i64, i64, i64, i64, i64, i32, i32, i64, i32, i32, i32, i32, i32, i32, i32, i32, ptr, i32, i64, i64, i64, i64, ptr, i32, ptr, i32, i32, i32, i64, i64, i64, i64, i32, i32, i32, i32, i32, i32, ptr, i32, i32, ptr, i32, i32, i32, [2 x i32], i32, %struct.redisOpArray, i32, ptr, i32, ptr, i32, i32, i32, i32, i32, i32, i32, [41 x i8], [41 x i8], i64, i64, i64, i64, i32, i32, ptr, i64, i64, i64, i32, i32, i32, i32, i32, i32, i32, i64, ptr, ptr, ptr, ptr, i32, i32, ptr, ptr, i32, i32, i64, i64, i64, ptr, i32, ptr, i64, i32, i32, i32, i64, i32, i32, i32, i32, ptr, i32, i32, [41 x i8], i64, i32, ptr, i32, i32, i64, i64, i32, i32, i32, i32, i32, i64, [3 x i32], i32, i32, i32, [9 x i32], ptr, ptr, i32, i64, ptr, ptr, i32, i32, i32, i32, i64, i64, i64, i64, i64, i64, i64, i64, i64, i64, i32, i32, i64, i64, i32, i64, i64, i64, i64, i64, ptr, ptr, i32, ptr, i32, i32, i32, i64, i64, ptr, ptr, i32, i32, i32, i32, i32, ptr, ptr, ptr, i32, i32, i32, i32, i32, i32, i32, i64, i32, i64, i32, i32, i32, i32, i32, i32, i32, i64, ptr, ptr, i64, ptr, i32, %struct.aclInfo, i32, i64, i32, i32, i32, %struct.redisTLSContextConfig, ptr, ptr, ptr, ptr, ptr, i64, i32, ptr, i32, i32, i32, i64, i32, ptr }
%struct.connListener = type { [16 x i32], i32, ptr, i32, i32, ptr, ptr }
%struct.pause_event = type { i32, i64 }
%struct.malloc_stats = type { i64, i64, i64, i64, i64 }
%struct.anon = type { i64, i64, [16 x i64], i32 }
%struct.durationStats = type { i64, i64, i64 }
%struct.redisOpArray = type { ptr, i32, i32 }
%struct.aclInfo = type { i64, i64, i64, i64 }
%struct.redisTLSContextConfig = type { ptr, ptr, ptr, ptr, ptr, ptr, ptr, ptr, ptr, ptr, ptr, ptr, i32, i32, i32, i32 }
%struct.glob_t = type { i64, ptr, i64, i32, ptr, ptr, ptr, ptr, ptr }

@server = external global %struct.redisServer, align 8
@.str.55 = private unnamed_addr constant [2 x i8] c"\0A\00", align 1
@.str.80 = private unnamed_addr constant [2 x i8] c"r\00", align 1
@.str.81 = private unnamed_addr constant [45 x i8] c"Fatal error, can't open config file '%s': %s\00", align 1
@.str.82 = private unnamed_addr constant [26 x i8] c"Reading config from stdin\00", align 1
@stdin = external global ptr, align 8

; Function Attrs: nounwind uwtable
define dso_local void @loadServerConfig(ptr noundef %filename, i8 noundef signext %config_from_stdin, ptr noundef %options) #0 {
entry:
  %filename.addr = alloca ptr, align 8
  %config_from_stdin.addr = alloca i8, align 1
  %options.addr = alloca ptr, align 8
  %config = alloca ptr, align 8
  %buf = alloca [1025 x i8], align 16
  %fp = alloca ptr, align 8
  %globbuf = alloca %struct.glob_t, align 8
  %i = alloca i64, align 8
  store ptr %filename, ptr %filename.addr, align 8
  store i8 %config_from_stdin, ptr %config_from_stdin.addr, align 1
  store ptr %options, ptr %options.addr, align 8
  %call = call ptr @sdsempty()
  store ptr %call, ptr %config, align 8
  %0 = load ptr, ptr %filename.addr, align 8
  %tobool = icmp ne ptr %0, null
  br i1 %tobool, label %if.then, label %if.end49

if.then:                                          ; preds = %entry
  %1 = load ptr, ptr %filename.addr, align 8
  %call1 = call ptr @strchr(ptr noundef %1, i32 noundef 42) #10
  %tobool2 = icmp ne ptr %call1, null
  br i1 %tobool2, label %if.then8, label %lor.lhs.false

lor.lhs.false:                                    ; preds = %if.then
  %2 = load ptr, ptr %filename.addr, align 8
  %call3 = call ptr @strchr(ptr noundef %2, i32 noundef 63) #10
  %tobool4 = icmp ne ptr %call3, null
  br i1 %tobool4, label %if.then8, label %lor.lhs.false5

lor.lhs.false5:                                   ; preds = %lor.lhs.false
  %3 = load ptr, ptr %filename.addr, align 8
  %call6 = call ptr @strchr(ptr noundef %3, i32 noundef 91) #10
  %tobool7 = icmp ne ptr %call6, null
  br i1 %tobool7, label %if.then8, label %if.else

if.then8:                                         ; preds = %lor.lhs.false5, %lor.lhs.false, %if.then
  %4 = load ptr, ptr %filename.addr, align 8
  %call9 = call i32 @glob64(ptr noundef %4, i32 noundef 0, ptr noundef null, ptr noundef %globbuf) #14
  %cmp = icmp eq i32 %call9, 0
  br i1 %cmp, label %if.then10, label %if.end27

if.then10:                                        ; preds = %if.then8
  store i64 0, ptr %i, align 8
  br label %for.cond

for.cond:                                         ; preds = %for.inc, %if.then10
  %5 = load i64, ptr %i, align 8
  %gl_pathc = getelementptr inbounds %struct.glob_t, ptr %globbuf, i32 0, i32 0
  %6 = load i64, ptr %gl_pathc, align 8
  %cmp11 = icmp ult i64 %5, %6
  br i1 %cmp11, label %for.body, label %for.end

for.body:                                         ; preds = %for.cond
  %gl_pathv = getelementptr inbounds %struct.glob_t, ptr %globbuf, i32 0, i32 1
  %7 = load ptr, ptr %gl_pathv, align 8
  %8 = load i64, ptr %i, align 8
  %arrayidx = getelementptr inbounds ptr, ptr %7, i64 %8
  %9 = load ptr, ptr %arrayidx, align 8
  %call12 = call noalias ptr @fopen64(ptr noundef %9, ptr noundef @.str.80)
  store ptr %call12, ptr %fp, align 8
  %cmp13 = icmp eq ptr %call12, null
  br i1 %cmp13, label %if.then14, label %if.end21

if.then14:                                        ; preds = %for.body
  br label %do.body

do.body:                                          ; preds = %if.then14
  %10 = load i32, ptr getelementptr inbounds (%struct.redisServer, ptr @server, i32 0, i32 156), align 8
  %cmp15 = icmp slt i32 3, %10
  br i1 %cmp15, label %if.then16, label %if.end

if.then16:                                        ; preds = %do.body
  br label %do.end

if.end:                                           ; preds = %do.body
  %gl_pathv17 = getelementptr inbounds %struct.glob_t, ptr %globbuf, i32 0, i32 1
  %11 = load ptr, ptr %gl_pathv17, align 8
  %12 = load i64, ptr %i, align 8
  %arrayidx18 = getelementptr inbounds ptr, ptr %11, i64 %12
  %13 = load ptr, ptr %arrayidx18, align 8
  %call19 = call ptr @__errno_location() #15
  %14 = load i32, ptr %call19, align 4
  %call20 = call ptr @strerror(i32 noundef %14) #14
  call void (i32, ptr, ...) @_serverLog(i32 noundef 3, ptr noundef @.str.81, ptr noundef %13, ptr noundef %call20)
  br label %do.end

do.end:                                           ; preds = %if.end, %if.then16
  call void @exit(i32 noundef 1) #11
  unreachable

if.end21:                                         ; preds = %for.body
  br label %while.cond

while.cond:                                       ; preds = %while.body, %if.end21
  %arraydecay = getelementptr inbounds [1025 x i8], ptr %buf, i64 0, i64 0
  %15 = load ptr, ptr %fp, align 8
  %call22 = call ptr @fgets(ptr noundef %arraydecay, i32 noundef 1025, ptr noundef %15)
  %cmp23 = icmp ne ptr %call22, null
  br i1 %cmp23, label %while.body, label %while.end

while.body:                                       ; preds = %while.cond
  %16 = load ptr, ptr %config, align 8
  %arraydecay24 = getelementptr inbounds [1025 x i8], ptr %buf, i64 0, i64 0
  %call25 = call ptr @sdscat(ptr noundef %16, ptr noundef %arraydecay24)
  store ptr %call25, ptr %config, align 8
  br label %while.cond, !llvm.loop !13

while.end:                                        ; preds = %while.cond
  %17 = load ptr, ptr %fp, align 8
  %call26 = call i32 @fclose(ptr noundef %17)
  br label %for.inc

for.inc:                                          ; preds = %while.end
  %18 = load i64, ptr %i, align 8
  %inc = add i64 %18, 1
  store i64 %inc, ptr %i, align 8
  br label %for.cond, !llvm.loop !14

for.end:                                          ; preds = %for.cond
  call void @globfree64(ptr noundef %globbuf) #14
  br label %if.end27

if.end27:                                         ; preds = %for.end, %if.then8
  br label %if.end48

if.else:                                          ; preds = %lor.lhs.false5
  %19 = load ptr, ptr %filename.addr, align 8
  %call28 = call noalias ptr @fopen64(ptr noundef %19, ptr noundef @.str.80)
  store ptr %call28, ptr %fp, align 8
  %cmp29 = icmp eq ptr %call28, null
  br i1 %cmp29, label %if.then30, label %if.end38

if.then30:                                        ; preds = %if.else
  br label %do.body31

do.body31:                                        ; preds = %if.then30
  %20 = load i32, ptr getelementptr inbounds (%struct.redisServer, ptr @server, i32 0, i32 156), align 8
  %cmp32 = icmp slt i32 3, %20
  br i1 %cmp32, label %if.then33, label %if.end34

if.then33:                                        ; preds = %do.body31
  br label %do.end37

if.end34:                                         ; preds = %do.body31
  %21 = load ptr, ptr %filename.addr, align 8
  %call35 = call ptr @__errno_location() #15
  %22 = load i32, ptr %call35, align 4
  %call36 = call ptr @strerror(i32 noundef %22) #14
  call void (i32, ptr, ...) @_serverLog(i32 noundef 3, ptr noundef @.str.81, ptr noundef %21, ptr noundef %call36)
  br label %do.end37

do.end37:                                         ; preds = %if.end34, %if.then33
  call void @exit(i32 noundef 1) #11
  unreachable

if.end38:                                         ; preds = %if.else
  br label %while.cond39

while.cond39:                                     ; preds = %while.body43, %if.end38
  %arraydecay40 = getelementptr inbounds [1025 x i8], ptr %buf, i64 0, i64 0
  %23 = load ptr, ptr %fp, align 8
  %call41 = call ptr @fgets(ptr noundef %arraydecay40, i32 noundef 1025, ptr noundef %23)
  %cmp42 = icmp ne ptr %call41, null
  br i1 %cmp42, label %while.body43, label %while.end46

while.body43:                                     ; preds = %while.cond39
  %24 = load ptr, ptr %config, align 8
  %arraydecay44 = getelementptr inbounds [1025 x i8], ptr %buf, i64 0, i64 0
  %call45 = call ptr @sdscat(ptr noundef %24, ptr noundef %arraydecay44)
  store ptr %call45, ptr %config, align 8
  br label %while.cond39, !llvm.loop !15

while.end46:                                      ; preds = %while.cond39
  %25 = load ptr, ptr %fp, align 8
  %call47 = call i32 @fclose(ptr noundef %25)
  br label %if.end48

if.end48:                                         ; preds = %while.end46, %if.end27
  br label %if.end49

if.end49:                                         ; preds = %if.end48, %entry
  %26 = load i8, ptr %config_from_stdin.addr, align 1
  %tobool50 = icmp ne i8 %26, 0
  br i1 %tobool50, label %if.then51, label %if.end65

if.then51:                                        ; preds = %if.end49
  br label %do.body52

do.body52:                                        ; preds = %if.then51
  %27 = load i32, ptr getelementptr inbounds (%struct.redisServer, ptr @server, i32 0, i32 156), align 8
  %cmp53 = icmp slt i32 2, %27
  br i1 %cmp53, label %if.then54, label %if.end55

if.then54:                                        ; preds = %do.body52
  br label %do.end56

if.end55:                                         ; preds = %do.body52
  call void (i32, ptr, ...) @_serverLog(i32 noundef 2, ptr noundef @.str.82)
  br label %do.end56

do.end56:                                         ; preds = %if.end55, %if.then54
  %28 = load ptr, ptr @stdin, align 8
  store ptr %28, ptr %fp, align 8
  br label %while.cond57

while.cond57:                                     ; preds = %while.body61, %do.end56
  %arraydecay58 = getelementptr inbounds [1025 x i8], ptr %buf, i64 0, i64 0
  %29 = load ptr, ptr %fp, align 8
  %call59 = call ptr @fgets(ptr noundef %arraydecay58, i32 noundef 1025, ptr noundef %29)
  %cmp60 = icmp ne ptr %call59, null
  br i1 %cmp60, label %while.body61, label %while.end64

while.body61:                                     ; preds = %while.cond57
  %30 = load ptr, ptr %config, align 8
  %arraydecay62 = getelementptr inbounds [1025 x i8], ptr %buf, i64 0, i64 0
  %call63 = call ptr @sdscat(ptr noundef %30, ptr noundef %arraydecay62)
  store ptr %call63, ptr %config, align 8
  br label %while.cond57, !llvm.loop !16

while.end64:                                      ; preds = %while.cond57
  br label %if.end65

if.end65:                                         ; preds = %while.end64, %if.end49
  %31 = load ptr, ptr %options.addr, align 8
  %tobool66 = icmp ne ptr %31, null
  br i1 %tobool66, label %if.then67, label %if.end70

if.then67:                                        ; preds = %if.end65
  %32 = load ptr, ptr %config, align 8
  %call68 = call ptr @sdscat(ptr noundef %32, ptr noundef @.str.55)
  store ptr %call68, ptr %config, align 8
  %33 = load ptr, ptr %config, align 8
  %34 = load ptr, ptr %options.addr, align 8
  %call69 = call ptr @sdscat(ptr noundef %33, ptr noundef %34)
  store ptr %call69, ptr %config, align 8
  br label %if.end70

if.end70:                                         ; preds = %if.then67, %if.end65
  %35 = load ptr, ptr %config, align 8
  call void @loadServerConfigFromString(ptr noundef %35)
  %36 = load ptr, ptr %config, align 8
  call void @sdsfree(ptr noundef %36)
  ret void
}