; Function Attrs: nounwind uwtable
define dso_local void @loadServerConfig(ptr noundef %filename, i8 noundef signext %config_from_stdin, ptr noundef %options) local_unnamed_addr #2 {
entry:
  %buf = alloca [1025 x i8], align 16
  %globbuf = alloca %struct.glob_t, align 8
  %call = tail call ptr @sdsempty() #24
  %tobool.not = icmp eq ptr %filename, null
  br i1 %tobool.not, label %if.end49, label %if.then

if.then:                                          ; preds = %entry
  %call1 = tail call ptr @strchr(ptr noundef nonnull dereferenceable(1) %filename, i32 noundef 42) #23
  %tobool2.not = icmp eq ptr %call1, null
  br i1 %tobool2.not, label %lor.lhs.false, label %if.then8

lor.lhs.false:                                    ; preds = %if.then
  %call3 = tail call ptr @strchr(ptr noundef nonnull dereferenceable(1) %filename, i32 noundef 63) #23
  %tobool4.not = icmp eq ptr %call3, null
  br i1 %tobool4.not, label %lor.lhs.false5, label %if.then8

lor.lhs.false5:                                   ; preds = %lor.lhs.false
  %call6 = tail call ptr @strchr(ptr noundef nonnull dereferenceable(1) %filename, i32 noundef 91) #23
  %tobool7.not = icmp eq ptr %call6, null
  br i1 %tobool7.not, label %if.else, label %if.then8

if.then8:                                         ; preds = %lor.lhs.false5, %lor.lhs.false, %if.then
  %call9 = call i32 @glob64(ptr noundef nonnull %filename, i32 noundef 0, ptr noundef null, ptr noundef nonnull %globbuf) #24
  %cmp = icmp eq i32 %call9, 0
  br i1 %cmp, label %for.cond.preheader, label %if.end49

for.cond.preheader:                               ; preds = %if.then8
  %0 = load i64, ptr %globbuf, align 8
  %cmp1126.not = icmp eq i64 %0, 0
  br i1 %cmp1126.not, label %for.end, label %for.body.lr.ph

for.body.lr.ph:                                   ; preds = %for.cond.preheader
  %gl_pathv = getelementptr inbounds i8, ptr %globbuf, i64 8
  br label %for.body

for.body:                                         ; preds = %for.body.lr.ph, %while.end
  %i.028 = phi i64 [ 0, %for.body.lr.ph ], [ %inc, %while.end ]
  %config.027 = phi ptr [ %call, %for.body.lr.ph ], [ %config.1.lcssa, %while.end ]
  %1 = load ptr, ptr %gl_pathv, align 8
  %arrayidx = getelementptr inbounds ptr, ptr %1, i64 %i.028
  %2 = load ptr, ptr %arrayidx, align 8
  %call12 = call noalias ptr @fopen64(ptr noundef %2, ptr noundef nonnull @.str.80)
  %cmp13 = icmp eq ptr %call12, null
  br i1 %cmp13, label %do.body, label %while.cond.preheader

while.cond.preheader:                             ; preds = %for.body
  %call2223 = call ptr @fgets(ptr noundef nonnull %buf, i32 noundef 1025, ptr noundef nonnull %call12)
  %cmp23.not24 = icmp eq ptr %call2223, null
  br i1 %cmp23.not24, label %while.end, label %while.body

do.body:                                          ; preds = %for.body
  %3 = load i32, ptr getelementptr inbounds (%struct.redisServer, ptr @server, i64 0, i32 156), align 8
  %cmp15 = icmp sgt i32 %3, 3
  br i1 %cmp15, label %do.end, label %if.end

if.end:                                           ; preds = %do.body
  %4 = load ptr, ptr %gl_pathv, align 8
  %arrayidx18 = getelementptr inbounds ptr, ptr %4, i64 %i.028
  %5 = load ptr, ptr %arrayidx18, align 8
  %call19 = tail call ptr @__errno_location() #28
  %6 = load i32, ptr %call19, align 4
  %call20 = call ptr @strerror(i32 noundef %6) #24
  call void (i32, ptr, ...) @_serverLog(i32 noundef 3, ptr noundef nonnull @.str.81, ptr noundef %5, ptr noundef %call20) #24
  br label %do.end

do.end:                                           ; preds = %do.body, %if.end
  call void @exit(i32 noundef 1) #25
  unreachable

while.body:                                       ; preds = %while.cond.preheader, %while.body
  %config.125 = phi ptr [ %call25, %while.body ], [ %config.027, %while.cond.preheader ]
  %call25 = call ptr @sdscat(ptr noundef %config.125, ptr noundef nonnull %buf) #24
  %call22 = call ptr @fgets(ptr noundef nonnull %buf, i32 noundef 1025, ptr noundef nonnull %call12)
  %cmp23.not = icmp eq ptr %call22, null
  br i1 %cmp23.not, label %while.end, label %while.body, !llvm.loop !13

while.end:                                        ; preds = %while.body, %while.cond.preheader
  %config.1.lcssa = phi ptr [ %config.027, %while.cond.preheader ], [ %call25, %while.body ]
  %call26 = call i32 @fclose(ptr noundef nonnull %call12)
  %inc = add nuw i64 %i.028, 1
  %7 = load i64, ptr %globbuf, align 8
  %cmp11 = icmp ult i64 %inc, %7
  br i1 %cmp11, label %for.body, label %for.end, !llvm.loop !14

for.end:                                          ; preds = %while.end, %for.cond.preheader
  %config.0.lcssa = phi ptr [ %call, %for.cond.preheader ], [ %config.1.lcssa, %while.end ]
  call void @globfree64(ptr noundef nonnull %globbuf) #24
  br label %if.end49

if.else:                                          ; preds = %lor.lhs.false5
  %call28 = tail call noalias ptr @fopen64(ptr noundef nonnull %filename, ptr noundef nonnull @.str.80)
  %cmp29 = icmp eq ptr %call28, null
  br i1 %cmp29, label %do.body31, label %while.cond39.preheader

while.cond39.preheader:                           ; preds = %if.else
  %call4130 = call ptr @fgets(ptr noundef nonnull %buf, i32 noundef 1025, ptr noundef nonnull %call28)
  %cmp42.not31 = icmp eq ptr %call4130, null
  br i1 %cmp42.not31, label %while.end46, label %while.body43

do.body31:                                        ; preds = %if.else
  %8 = load i32, ptr getelementptr inbounds (%struct.redisServer, ptr @server, i64 0, i32 156), align 8
  %cmp32 = icmp sgt i32 %8, 3
  br i1 %cmp32, label %do.end37, label %if.end34

if.end34:                                         ; preds = %do.body31
  %call35 = tail call ptr @__errno_location() #28
  %9 = load i32, ptr %call35, align 4
  %call36 = tail call ptr @strerror(i32 noundef %9) #24
  tail call void (i32, ptr, ...) @_serverLog(i32 noundef 3, ptr noundef nonnull @.str.81, ptr noundef nonnull %filename, ptr noundef %call36) #24
  br label %do.end37

do.end37:                                         ; preds = %do.body31, %if.end34
  tail call void @exit(i32 noundef 1) #25
  unreachable

while.body43:                                     ; preds = %while.cond39.preheader, %while.body43
  %config.232 = phi ptr [ %call45, %while.body43 ], [ %call, %while.cond39.preheader ]
  %call45 = call ptr @sdscat(ptr noundef %config.232, ptr noundef nonnull %buf) #24
  %call41 = call ptr @fgets(ptr noundef nonnull %buf, i32 noundef 1025, ptr noundef nonnull %call28)
  %cmp42.not = icmp eq ptr %call41, null
  br i1 %cmp42.not, label %while.end46, label %while.body43, !llvm.loop !15

while.end46:                                      ; preds = %while.body43, %while.cond39.preheader
  %config.2.lcssa = phi ptr [ %call, %while.cond39.preheader ], [ %call45, %while.body43 ]
  %call47 = call i32 @fclose(ptr noundef nonnull %call28)
  br label %if.end49

if.end49:                                         ; preds = %while.end46, %for.end, %if.then8, %entry
  %config.3 = phi ptr [ %config.0.lcssa, %for.end ], [ %call, %if.then8 ], [ %config.2.lcssa, %while.end46 ], [ %call, %entry ]
  %tobool50.not = icmp eq i8 %config_from_stdin, 0
  br i1 %tobool50.not, label %if.end65, label %do.body52

do.body52:                                        ; preds = %if.end49
  %10 = load i32, ptr getelementptr inbounds (%struct.redisServer, ptr @server, i64 0, i32 156), align 8
  %cmp53 = icmp sgt i32 %10, 2
  br i1 %cmp53, label %do.end56, label %if.end55

if.end55:                                         ; preds = %do.body52
  call void (i32, ptr, ...) @_serverLog(i32 noundef 2, ptr noundef nonnull @.str.82) #24
  br label %do.end56

do.end56:                                         ; preds = %do.body52, %if.end55
  %11 = load ptr, ptr @stdin, align 8
  %call5934 = call ptr @fgets(ptr noundef nonnull %buf, i32 noundef 1025, ptr noundef %11)
  %cmp60.not35 = icmp eq ptr %call5934, null
  br i1 %cmp60.not35, label %if.end65, label %while.body61

while.body61:                                     ; preds = %do.end56, %while.body61
  %config.436 = phi ptr [ %call63, %while.body61 ], [ %config.3, %do.end56 ]
  %call63 = call ptr @sdscat(ptr noundef %config.436, ptr noundef nonnull %buf) #24
  %call59 = call ptr @fgets(ptr noundef nonnull %buf, i32 noundef 1025, ptr noundef %11)
  %cmp60.not = icmp eq ptr %call59, null
  br i1 %cmp60.not, label %if.end65, label %while.body61, !llvm.loop !16

if.end65:                                         ; preds = %while.body61, %do.end56, %if.end49
  %config.5 = phi ptr [ %config.3, %if.end49 ], [ %config.3, %do.end56 ], [ %call63, %while.body61 ]
  %tobool66.not = icmp eq ptr %options, null
  br i1 %tobool66.not, label %if.end70, label %if.then67

if.then67:                                        ; preds = %if.end65
  %call68 = call ptr @sdscat(ptr noundef %config.5, ptr noundef nonnull @.str.55) #24
  %call69 = call ptr @sdscat(ptr noundef %call68, ptr noundef nonnull %options) #24
  br label %if.end70

if.end70:                                         ; preds = %if.then67, %if.end65
  %config.6 = phi ptr [ %call69, %if.then67 ], [ %config.5, %if.end65 ]
  call void @loadServerConfigFromString(ptr noundef %config.6)
  call void @sdsfree(ptr noundef %config.6) #24
  ret void
}